	.section	__TEXT,__text,regular,pure_instructions
	.macosx_version_min 10, 7
	.file	1 "/Volumes/data/4_github/learn-rust/100-rust-snippets/lifetime/src/main.rs"
	.p2align	4, 0x90
__ZN3std10sys_common9backtrace28__rust_begin_short_backtrace17hcfe3b45c960fa275E:
Lfunc_begin0:
	.file	2 "/rustc/59eed8a2aac0230a8b53e89d4e99d55912ba6b35/library/std/src/sys_common/backtrace.rs"
	.loc	2 121 0
	.cfi_startproc
	.cfi_personality 155, _rust_eh_personality
	.cfi_lsda 16, Lexception0
	pushq	%rbp
	.cfi_def_cfa_offset 16
	.cfi_offset %rbp, -16
	movq	%rsp, %rbp
	.cfi_def_cfa_register %rbp
	subq	$32, %rsp
	movq	%rdi, -24(%rbp)
Ltmp3:
	.loc	2 125 18 prologue_end
	callq	__ZN4core3ops8function6FnOnce9call_once17h3e982e1eb2657badE
Ltmp0:
Ltmp4:
	.loc	2 128 5
	callq	__ZN4core4hint9black_box17h7866d660ef3e8471E
Ltmp1:
	jmp	LBB0_2
Ltmp5:
LBB0_2:
	.loc	2 131 2
	addq	$32, %rsp
	popq	%rbp
	retq
LBB0_3:
	.loc	2 131 1 is_stmt 0
	jmp	LBB0_5
LBB0_4:
Ltmp2:
	.loc	2 0 1
	movq	%rax, %rcx
	movl	%edx, %eax
	movq	%rcx, -16(%rbp)
	movl	%eax, -8(%rbp)
	jmp	LBB0_3
LBB0_5:
	.loc	2 121 1 is_stmt 1
	movq	-16(%rbp), %rdi
	callq	__Unwind_Resume
Ltmp6:
Lfunc_end0:
	.cfi_endproc
	.section	__TEXT,__gcc_except_tab
	.p2align	2
GCC_except_table0:
Lexception0:
	.byte	255
	.byte	255
	.byte	1
	.uleb128 Lcst_end0-Lcst_begin0
Lcst_begin0:
	.uleb128 Lfunc_begin0-Lfunc_begin0
	.uleb128 Ltmp0-Lfunc_begin0
	.byte	0
	.byte	0
	.uleb128 Ltmp0-Lfunc_begin0
	.uleb128 Ltmp1-Ltmp0
	.uleb128 Ltmp2-Lfunc_begin0
	.byte	0
	.uleb128 Ltmp1-Lfunc_begin0
	.uleb128 Lfunc_end0-Ltmp1
	.byte	0
	.byte	0
Lcst_end0:
	.p2align	2

	.section	__TEXT,__text,regular,pure_instructions
	.private_extern	__ZN3std2rt10lang_start17h172c3abe4c50711bE
	.globl	__ZN3std2rt10lang_start17h172c3abe4c50711bE
	.p2align	4, 0x90
__ZN3std2rt10lang_start17h172c3abe4c50711bE:
Lfunc_begin1:
	.file	3 "/rustc/59eed8a2aac0230a8b53e89d4e99d55912ba6b35/library/std/src/rt.rs"
	.loc	3 57 0
	.cfi_startproc
	pushq	%rbp
	.cfi_def_cfa_offset 16
	.cfi_offset %rbp, -16
	movq	%rsp, %rbp
	.cfi_def_cfa_register %rbp
	subq	$48, %rsp
	movq	%rdx, %rcx
	movq	%rsi, %rdx
	movq	%rdi, -24(%rbp)
	movq	%rdx, -16(%rbp)
	movq	%rcx, -8(%rbp)
Ltmp7:
	.loc	3 63 10 prologue_end
	movq	%rdi, -32(%rbp)
	.loc	3 63 9 is_stmt 0
	leaq	-32(%rbp), %rdi
	.loc	3 62 5 is_stmt 1
	leaq	l___unnamed_1(%rip), %rsi
	callq	__ZN3std2rt19lang_start_internal17hf65df31c3ffe3b9aE
	movq	%rax, -40(%rbp)
	.loc	3 0 5 is_stmt 0
	movq	-40(%rbp), %rdi
	.loc	3 62 5
	callq	__ZN4core6result19Result$LT$T$C$E$GT$7into_ok17h71d4d9dd8f81654fE
	movq	%rax, -48(%rbp)
	.loc	3 0 5
	movq	-48(%rbp), %rax
	.loc	3 68 2 is_stmt 1
	addq	$48, %rsp
	popq	%rbp
	retq
Ltmp8:
Lfunc_end1:
	.cfi_endproc

	.p2align	4, 0x90
__ZN3std2rt10lang_start28_$u7b$$u7b$closure$u7d$$u7d$17h3f611c7bc2abae17E:
Lfunc_begin2:
	.loc	3 63 0
	.cfi_startproc
	pushq	%rbp
	.cfi_def_cfa_offset 16
	.cfi_offset %rbp, -16
	movq	%rsp, %rbp
	.cfi_def_cfa_register %rbp
	subq	$16, %rsp
	movq	%rdi, -8(%rbp)
Ltmp9:
	.loc	3 63 77 prologue_end
	movq	(%rdi), %rdi
	.loc	3 63 18 is_stmt 0
	callq	__ZN3std10sys_common9backtrace28__rust_begin_short_backtrace17hcfe3b45c960fa275E
	callq	__ZN54_$LT$$LP$$RP$$u20$as$u20$std..process..Termination$GT$6report17h4e8c5194f038480cE
	movl	%eax, -12(%rbp)
	.loc	3 0 18
	movl	-12(%rbp), %eax
	.loc	3 63 91
	addq	$16, %rsp
	popq	%rbp
	retq
Ltmp10:
Lfunc_end2:
	.cfi_endproc

	.p2align	4, 0x90
__ZN3std3sys4unix7process14process_common8ExitCode6as_i3217h5c510ae19c3bfc1aE:
Lfunc_begin3:
	.file	4 "/rustc/59eed8a2aac0230a8b53e89d4e99d55912ba6b35/library/std/src/sys/unix/process/process_common.rs"
	.loc	4 468 0 is_stmt 1
	.cfi_startproc
	pushq	%rbp
	.cfi_def_cfa_offset 16
	.cfi_offset %rbp, -16
	movq	%rsp, %rbp
	.cfi_def_cfa_register %rbp
	pushq	%rax
	movq	%rdi, -8(%rbp)
Ltmp11:
	.loc	4 469 9 prologue_end
	movzbl	(%rdi), %eax
	.loc	4 470 6
	addq	$8, %rsp
	popq	%rbp
	retq
Ltmp12:
Lfunc_end3:
	.cfi_endproc

	.p2align	4, 0x90
__ZN4core3ops8function6FnOnce40call_once$u7b$$u7b$vtable.shim$u7d$$u7d$17h5d55519c156b3c13E:
Lfunc_begin4:
	.file	5 "/rustc/59eed8a2aac0230a8b53e89d4e99d55912ba6b35/library/core/src/ops/function.rs"
	.loc	5 227 0
	.cfi_startproc
	pushq	%rbp
	.cfi_def_cfa_offset 16
	.cfi_offset %rbp, -16
	movq	%rsp, %rbp
	.cfi_def_cfa_register %rbp
	subq	$32, %rsp
	movq	%rdi, -8(%rbp)
Ltmp13:
	.loc	5 227 5 prologue_end
	movq	(%rdi), %rdi
	callq	__ZN4core3ops8function6FnOnce9call_once17h0a4b30c31cd99dbfE
	movl	%eax, -20(%rbp)
	.loc	5 0 5 is_stmt 0
	movl	-20(%rbp), %eax
	.loc	5 227 5
	addq	$32, %rsp
	popq	%rbp
	retq
Ltmp14:
Lfunc_end4:
	.cfi_endproc

	.p2align	4, 0x90
__ZN4core3ops8function6FnOnce9call_once17h0a4b30c31cd99dbfE:
Lfunc_begin5:
	.loc	5 227 0 is_stmt 1
	.cfi_startproc
	.cfi_personality 155, _rust_eh_personality
	.cfi_lsda 16, Lexception1
	pushq	%rbp
	.cfi_def_cfa_offset 16
	.cfi_offset %rbp, -16
	movq	%rsp, %rbp
	.cfi_def_cfa_register %rbp
	subq	$48, %rsp
	movq	%rdi, -32(%rbp)
Ltmp15:
	leaq	-32(%rbp), %rdi
Ltmp18:
	.loc	5 227 5 prologue_end
	callq	__ZN3std2rt10lang_start28_$u7b$$u7b$closure$u7d$$u7d$17h3f611c7bc2abae17E
Ltmp16:
	movl	%eax, -36(%rbp)
	jmp	LBB5_1
LBB5_1:
	jmp	LBB5_5
LBB5_2:
	jmp	LBB5_4
LBB5_3:
Ltmp17:
	.loc	5 0 5 is_stmt 0
	movq	%rax, %rcx
	movl	%edx, %eax
	movq	%rcx, -16(%rbp)
	movl	%eax, -8(%rbp)
	jmp	LBB5_2
LBB5_4:
	.loc	5 227 5
	movq	-16(%rbp), %rdi
	callq	__Unwind_Resume
LBB5_5:
	.loc	5 0 5
	movl	-36(%rbp), %eax
	.loc	5 227 5
	addq	$48, %rsp
	popq	%rbp
	retq
Ltmp19:
Lfunc_end5:
	.cfi_endproc
	.section	__TEXT,__gcc_except_tab
	.p2align	2
GCC_except_table5:
Lexception1:
	.byte	255
	.byte	255
	.byte	1
	.uleb128 Lcst_end1-Lcst_begin1
Lcst_begin1:
	.uleb128 Ltmp15-Lfunc_begin5
	.uleb128 Ltmp16-Ltmp15
	.uleb128 Ltmp17-Lfunc_begin5
	.byte	0
	.uleb128 Ltmp16-Lfunc_begin5
	.uleb128 Lfunc_end5-Ltmp16
	.byte	0
	.byte	0
Lcst_end1:
	.p2align	2

	.section	__TEXT,__text,regular,pure_instructions
	.p2align	4, 0x90
__ZN4core3ops8function6FnOnce9call_once17h3e982e1eb2657badE:
Lfunc_begin6:
	.loc	5 227 0 is_stmt 1
	.cfi_startproc
	pushq	%rbp
	.cfi_def_cfa_offset 16
	.cfi_offset %rbp, -16
	movq	%rsp, %rbp
	.cfi_def_cfa_register %rbp
	subq	$16, %rsp
	movq	%rdi, -8(%rbp)
Ltmp20:
	.loc	5 227 5 prologue_end
	callq	*%rdi
	addq	$16, %rsp
	popq	%rbp
	retq
Ltmp21:
Lfunc_end6:
	.cfi_endproc

	.p2align	4, 0x90
__ZN4core3ptr85drop_in_place$LT$std..rt..lang_start$LT$$LP$$RP$$GT$..$u7b$$u7b$closure$u7d$$u7d$$GT$17h0a406dacefb1fee8E:
Lfunc_begin7:
	.file	6 "/rustc/59eed8a2aac0230a8b53e89d4e99d55912ba6b35/library/core/src/ptr/mod.rs"
	.loc	6 188 0
	.cfi_startproc
	pushq	%rbp
	.cfi_def_cfa_offset 16
	.cfi_offset %rbp, -16
	movq	%rsp, %rbp
	.cfi_def_cfa_register %rbp
	pushq	%rax
	movq	%rdi, -8(%rbp)
Ltmp22:
	.loc	6 188 1 prologue_end
	addq	$8, %rsp
	popq	%rbp
	retq
Ltmp23:
Lfunc_end7:
	.cfi_endproc

	.p2align	4, 0x90
__ZN4core4hint9black_box17h7866d660ef3e8471E:
Lfunc_begin8:
	.file	7 "/rustc/59eed8a2aac0230a8b53e89d4e99d55912ba6b35/library/core/src/hint.rs"
	.loc	7 159 0
	.cfi_startproc
	pushq	%rbp
	.cfi_def_cfa_offset 16
	.cfi_offset %rbp, -16
	movq	%rsp, %rbp
	.cfi_def_cfa_register %rbp
	pushq	%rax
Ltmp24:
	.loc	7 169 9 prologue_end
	## InlineAsm Start
	## InlineAsm End
	.loc	7 171 2
	addq	$8, %rsp
	popq	%rbp
	retq
Ltmp25:
Lfunc_end8:
	.cfi_endproc

	.p2align	4, 0x90
__ZN4core6result19Result$LT$T$C$E$GT$7into_ok17h71d4d9dd8f81654fE:
Lfunc_begin9:
	.file	8 "/rustc/59eed8a2aac0230a8b53e89d4e99d55912ba6b35/library/core/src/result.rs"
	.loc	8 1424 0
	.cfi_startproc
	pushq	%rbp
	.cfi_def_cfa_offset 16
	.cfi_offset %rbp, -16
	movq	%rsp, %rbp
	.cfi_def_cfa_register %rbp
	subq	$32, %rsp
	movq	%rdi, -24(%rbp)
	movb	$1, %al
Ltmp26:
	.loc	8 1425 9 prologue_end
	testb	%al, %al
	jne	LBB9_2
	jmp	LBB9_4
LBB9_4:
	jmp	LBB9_3
	.loc	8 1425 15 is_stmt 0
	ud2
LBB9_2:
	.loc	8 1426 16 is_stmt 1
	movq	-24(%rbp), %rax
	movq	%rax, -8(%rbp)
	.loc	8 1429 6
	addq	$32, %rsp
	popq	%rbp
	retq
LBB9_3:
Ltmp27:
	.loc	8 1427 23
	callq	__ZN50_$LT$T$u20$as$u20$core..convert..Into$LT$U$GT$$GT$4into17h3492721134b3c734E
Ltmp28:
Lfunc_end9:
	.cfi_endproc

	.p2align	4, 0x90
__ZN50_$LT$T$u20$as$u20$core..convert..From$LT$T$GT$$GT$4from17h4a35e1e720d56b42E:
Lfunc_begin10:
	.file	9 "/rustc/59eed8a2aac0230a8b53e89d4e99d55912ba6b35/library/core/src/convert/mod.rs"
	.loc	9 547 0
	.cfi_startproc
	pushq	%rbp
	.cfi_def_cfa_offset 16
	.cfi_offset %rbp, -16
	movq	%rsp, %rbp
	.cfi_def_cfa_register %rbp
	pushq	%rax
Ltmp29:
	.loc	9 549 6 prologue_end
	ud2
Ltmp30:
Lfunc_end10:
	.cfi_endproc

	.p2align	4, 0x90
__ZN50_$LT$T$u20$as$u20$core..convert..Into$LT$U$GT$$GT$4into17h3492721134b3c734E:
Lfunc_begin11:
	.loc	9 539 0
	.cfi_startproc
	pushq	%rbp
	.cfi_def_cfa_offset 16
	.cfi_offset %rbp, -16
	movq	%rsp, %rbp
	.cfi_def_cfa_register %rbp
	subq	$16, %rsp
Ltmp31:
	.loc	9 540 9 prologue_end
	callq	__ZN50_$LT$T$u20$as$u20$core..convert..From$LT$T$GT$$GT$4from17h4a35e1e720d56b42E
	.loc	9 541 6
	ud2
Ltmp32:
Lfunc_end11:
	.cfi_endproc

	.p2align	4, 0x90
__ZN54_$LT$$LP$$RP$$u20$as$u20$std..process..Termination$GT$6report17h4e8c5194f038480cE:
Lfunc_begin12:
	.file	10 "/rustc/59eed8a2aac0230a8b53e89d4e99d55912ba6b35/library/std/src/process.rs"
	.loc	10 2023 0
	.cfi_startproc
	pushq	%rbp
	.cfi_def_cfa_offset 16
	.cfi_offset %rbp, -16
	movq	%rsp, %rbp
	.cfi_def_cfa_register %rbp
	subq	$16, %rsp
Ltmp33:
	.loc	10 2024 9 prologue_end
	xorl	%edi, %edi
	callq	__ZN68_$LT$std..process..ExitCode$u20$as$u20$std..process..Termination$GT$6report17hf74eeb29a67faa5bE
	movl	%eax, -12(%rbp)
	.loc	10 0 9 is_stmt 0
	movl	-12(%rbp), %eax
	.loc	10 2025 6 is_stmt 1
	addq	$16, %rsp
	popq	%rbp
	retq
Ltmp34:
Lfunc_end12:
	.cfi_endproc

	.p2align	4, 0x90
__ZN68_$LT$std..process..ExitCode$u20$as$u20$std..process..Termination$GT$6report17hf74eeb29a67faa5bE:
Lfunc_begin13:
	.loc	10 2057 0
	.cfi_startproc
	pushq	%rbp
	.cfi_def_cfa_offset 16
	.cfi_offset %rbp, -16
	movq	%rsp, %rbp
	.cfi_def_cfa_register %rbp
	subq	$16, %rsp
	movb	%dil, %al
	movb	%al, -1(%rbp)
Ltmp35:
	.loc	10 2058 9 prologue_end
	leaq	-1(%rbp), %rdi
	callq	__ZN3std3sys4unix7process14process_common8ExitCode6as_i3217h5c510ae19c3bfc1aE
	movl	%eax, -8(%rbp)
	.loc	10 0 9 is_stmt 0
	movl	-8(%rbp), %eax
	.loc	10 2059 6 is_stmt 1
	addq	$16, %rsp
	popq	%rbp
	retq
Ltmp36:
Lfunc_end13:
	.cfi_endproc

	.p2align	4, 0x90
__ZN8lifetime11getInstance17hcb8115af624794f7E:
Lfunc_begin14:
	.loc	1 5 0
	.cfi_startproc
	pushq	%rbp
	.cfi_def_cfa_offset 16
	.cfi_offset %rbp, -16
	movq	%rsp, %rbp
	.cfi_def_cfa_register %rbp
Ltmp37:
	.loc	1 7 2 prologue_end
	leaq	__ZN8lifetime5THING17h57d16ec768adf029E(%rip), %rax
	popq	%rbp
	retq
Ltmp38:
Lfunc_end14:
	.cfi_endproc

	.p2align	4, 0x90
__ZN8lifetime4main17h6ed9b53b0ea9bc36E:
Lfunc_begin15:
	.loc	1 9 0
	.cfi_startproc
	pushq	%rbp
	.cfi_def_cfa_offset 16
	.cfi_offset %rbp, -16
	movq	%rsp, %rbp
	.cfi_def_cfa_register %rbp
	subq	$128, %rsp
Ltmp39:
	.loc	1 20 18 prologue_end
	leaq	l___unnamed_2(%rip), %rax
	movq	%rax, -128(%rbp)
	movq	$1, -120(%rbp)
Ltmp40:
	.loc	1 21 18
	leaq	l___unnamed_2(%rip), %rax
	movq	%rax, -112(%rbp)
	movq	$1, -104(%rbp)
Ltmp41:
	.loc	1 22 18
	leaq	l___unnamed_2(%rip), %rax
	movq	%rax, -96(%rbp)
	movq	$1, -88(%rbp)
Ltmp42:
	.loc	1 30 32
	leaq	l___unnamed_2(%rip), %rax
	movq	%rax, -80(%rbp)
	movq	$1, -72(%rbp)
Ltmp43:
	.loc	1 36 18
	leaq	l___unnamed_2(%rip), %rax
	movq	%rax, -64(%rbp)
	movq	$1, -56(%rbp)
Ltmp44:
	.loc	1 37 18
	leaq	l___unnamed_2(%rip), %rax
	movq	%rax, -48(%rbp)
	movq	$1, -40(%rbp)
Ltmp45:
	.loc	1 38 18
	leaq	l___unnamed_2(%rip), %rax
	movq	%rax, -32(%rbp)
	movq	$1, -24(%rbp)
Ltmp46:
	.loc	1 46 18
	callq	__ZN8lifetime11getInstance17hcb8115af624794f7E
	movq	%rax, -16(%rbp)
Ltmp47:
	.loc	1 47 18
	callq	__ZN8lifetime11getInstance17hcb8115af624794f7E
	movq	%rax, -8(%rbp)
Ltmp48:
	.loc	1 50 2
	addq	$128, %rsp
	popq	%rbp
	retq
Ltmp49:
Lfunc_end15:
	.cfi_endproc

	.globl	_main
	.p2align	4, 0x90
_main:
Lfunc_begin16:
	.cfi_startproc
	pushq	%rbp
	.cfi_def_cfa_offset 16
	.cfi_offset %rbp, -16
	movq	%rsp, %rbp
	.cfi_def_cfa_register %rbp
	movq	%rsi, %rdx
	movslq	%edi, %rsi
	leaq	__ZN8lifetime4main17h6ed9b53b0ea9bc36E(%rip), %rdi
	callq	__ZN3std2rt10lang_start17h172c3abe4c50711bE
	popq	%rbp
	retq
Lfunc_end16:
	.cfi_endproc

	.section	__DATA,__const
	.p2align	3
l___unnamed_1:
	.quad	__ZN4core3ptr85drop_in_place$LT$std..rt..lang_start$LT$$LP$$RP$$GT$..$u7b$$u7b$closure$u7d$$u7d$$GT$17h0a406dacefb1fee8E
	.asciz	"\b\000\000\000\000\000\000\000\b\000\000\000\000\000\000"
	.quad	__ZN4core3ops8function6FnOnce40call_once$u7b$$u7b$vtable.shim$u7d$$u7d$17h5d55519c156b3c13E
	.quad	__ZN3std2rt10lang_start28_$u7b$$u7b$closure$u7d$$u7d$17h3f611c7bc2abae17E
	.quad	__ZN3std2rt10lang_start28_$u7b$$u7b$closure$u7d$$u7d$17h3f611c7bc2abae17E

	.section	__TEXT,__const
__ZN8lifetime5THING17h57d16ec768adf029E:
	.byte	0

l___unnamed_2:
	.byte	97

	.section	__DATA,__const
	.p2align	3
__ZN8lifetime4main2X217hd5b4d4d907fc2bfbE:
	.quad	l___unnamed_2
	.asciz	"\001\000\000\000\000\000\000"

	.section	__DATA,__const
Lsec_end0:
	.section	__TEXT,__const
Lsec_end1:
	.section	__TEXT,__text,regular,pure_instructions
Lsec_end2: